; Function Attrs: mustprogress uwtable
define hidden noundef zeroext i1 @_ZN18OpenImageIO_v2_6_09TGAOutput10write_tileEiiiNS_8TypeDescEPKvlll(ptr noundef nonnull align 8 dereferenceable(296) %this, i32 noundef %x, i32 noundef %y, i32 noundef %z, ptr nocapture noundef readonly %format, ptr noundef %data, i64 noundef %xstride, i64 noundef %ystride, i64 noundef %zstride) unnamed_addr #5 align 2 {
entry:
  %agg.tmp = alloca %"struct.OpenImageIO_v2_6_0::TypeDesc", align 4
  %agg.tmp2 = alloca %"struct.OpenImageIO_v2_6_0::TypeDesc", align 4
  %0 = load i8, ptr %format, align 4
  store i8 %0, ptr %agg.tmp, align 4
  %aggregate.i = getelementptr inbounds i8, ptr %agg.tmp, i64 1
  %aggregate3.i = getelementptr inbounds i8, ptr %format, i64 1
  %1 = load i8, ptr %aggregate3.i, align 1
  store i8 %1, ptr %aggregate.i, align 1
  %vecsemantics.i = getelementptr inbounds i8, ptr %agg.tmp, i64 2
  %vecsemantics4.i = getelementptr inbounds i8, ptr %format, i64 2
  %2 = load i8, ptr %vecsemantics4.i, align 2
  store i8 %2, ptr %vecsemantics.i, align 2
  %reserved.i = getelementptr inbounds i8, ptr %agg.tmp, i64 3
  store i8 0, ptr %reserved.i, align 1
  %arraylen.i = getelementptr inbounds i8, ptr %agg.tmp, i64 4
  %arraylen5.i = getelementptr inbounds i8, ptr %format, i64 4
  %3 = load i32, ptr %arraylen5.i, align 4
  store i32 %3, ptr %arraylen.i, align 4
  %m_tilebuffer = getelementptr inbounds i8, ptr %this, i64 256
  %4 = load ptr, ptr %m_tilebuffer, align 8
  store <4 x i8> <i8 0, i8 1, i8 0, i8 0>, ptr %agg.tmp2, align 4
  %arraylen4.i = getelementptr inbounds i8, ptr %agg.tmp2, i64 4
  store i32 0, ptr %arraylen4.i, align 4
  %call3 = call noundef zeroext i1 @_ZN18OpenImageIO_v2_6_011ImageOutput25copy_tile_to_image_bufferEiiiNS_8TypeDescEPKvlllPvS1_(ptr noundef nonnull align 8 dereferenceable(184) %this, i32 noundef %x, i32 noundef %y, i32 noundef %z, ptr noundef nonnull %agg.tmp, ptr noundef %data, i64 noundef %xstride, i64 noundef %ystride, i64 noundef %zstride, ptr noundef nonnull %4, ptr noundef nonnull %agg.tmp2)
  ret i1 %call3
}